target datalayout = "e-m:e-p270:32:32-p271:32:32-p272:64:64-i64:64-i128:128-f80:128-n8:16:32:64-S128"
target triple = "x86_64-unknown-linux-gnu"

%struct.QemuMutex = type { %union.pthread_mutex_t, i8 }
%union.pthread_mutex_t = type { %struct.__pthread_mutex_s }
%struct.__pthread_mutex_s = type { i32, i32, i32, i32, i32, i16, i16, %struct.__pthread_internal_list }
%struct.__pthread_internal_list = type { ptr, ptr }
%struct.CoQueue = type { %struct.anon }
%struct.anon = type { ptr, ptr }
%struct.QTailQLink = type { ptr, ptr }
%struct.QemuLockable = type { ptr, ptr, ptr }
%struct.AioContext = type { %struct._GSource, %struct.QemuRecMutex, ptr, %struct.AioHandlerList, %struct.AioHandlerList, i32, %struct.QemuLockCnt, %struct.BHList, %struct.anon.0, i8, %struct.EventNotifier, %struct.anon.1, ptr, i32, i32, ptr, ptr, %struct.io_uring, %struct.AioHandlerSList, %struct.QEMUTimerListGroup, i32, i64, i64, i64, i64, i64, %struct.AioHandlerList, i8, i32, ptr }
%struct._GSource = type { ptr, ptr, ptr, i32, ptr, i32, i32, i32, ptr, ptr, ptr, ptr, ptr }
%struct.QemuRecMutex = type { %struct.QemuMutex }
%struct.QemuLockCnt = type { i32 }
%struct.BHList = type { ptr }
%struct.anon.0 = type { ptr, ptr }
%struct.EventNotifier = type { i32, i32, i8 }
%struct.anon.1 = type { ptr }
%struct.io_uring = type { %struct.io_uring_sq, %struct.io_uring_cq, i32, i32, i32, [3 x i32] }
%struct.io_uring_sq = type { ptr, ptr, ptr, ptr, ptr, ptr, ptr, ptr, i32, i32, i64, ptr, [4 x i32] }
%struct.io_uring_cq = type { ptr, ptr, ptr, ptr, ptr, ptr, ptr, i64, ptr, [4 x i32] }
%struct.AioHandlerSList = type { ptr }
%struct.QEMUTimerListGroup = type { [4 x ptr] }
%struct.AioHandlerList = type { ptr }
%struct.BdrvGraphRWlock = type { i32, %union.anon }
%union.anon = type { %struct.QTailQLink }

@aio_context_list_lock = internal global %struct.QemuMutex zeroinitializer, align 8
@reader_queue = internal global %struct.CoQueue zeroinitializer, align 8
@.str.1 = private unnamed_addr constant [27 x i8] c"../qemu/block/graph-lock.c\00", align 1
@has_writer = internal global i32 0, align 4
@__func__.bdrv_graph_co_rdlock = private unnamed_addr constant [21 x i8] c"bdrv_graph_co_rdlock\00", align 1

; Function Attrs: nounwind sspstrong uwtable
define internal void @glib_autoptr_clear_QemuLockable(ptr noundef %_ptr) #0 {
entry:
  %_ptr.addr = alloca ptr, align 8
  store ptr %_ptr, ptr %_ptr.addr, align 8
  %0 = load ptr, ptr %_ptr.addr, align 8
  %tobool = icmp ne ptr %0, null
  br i1 %tobool, label %if.then, label %if.end

if.then:                                          ; preds = %entry
  %1 = load ptr, ptr %_ptr.addr, align 8
  call void @qemu_lockable_auto_unlock(ptr noundef %1)
  br label %if.end

if.end:                                           ; preds = %if.then, %entry
  ret void
}

; Function Attrs: nounwind sspstrong uwtable
define internal void @qemu_lockable_unlock(ptr noundef %x) #0 {
entry:
  %x.addr = alloca ptr, align 8
  store ptr %x, ptr %x.addr, align 8
  %0 = load ptr, ptr %x.addr, align 8
  %unlock = getelementptr inbounds %struct.QemuLockable, ptr %0, i32 0, i32 2
  %1 = load ptr, ptr %unlock, align 8
  %2 = load ptr, ptr %x.addr, align 8
  %object = getelementptr inbounds %struct.QemuLockable, ptr %2, i32 0, i32 0
  %3 = load ptr, ptr %object, align 8
  call void %1(ptr noundef %3)
  ret void
}

; Function Attrs: nounwind sspstrong uwtable
define internal void @qemu_lockable_lock(ptr noundef %x) #0 {
entry:
  %x.addr = alloca ptr, align 8
  store ptr %x, ptr %x.addr, align 8
  %0 = load ptr, ptr %x.addr, align 8
  %lock = getelementptr inbounds %struct.QemuLockable, ptr %0, i32 0, i32 1
  %1 = load ptr, ptr %lock, align 8
  %2 = load ptr, ptr %x.addr, align 8
  %object = getelementptr inbounds %struct.QemuLockable, ptr %2, i32 0, i32 0
  %3 = load ptr, ptr %object, align 8
  call void %1(ptr noundef %3)
  ret void
}

; Function Attrs: nounwind sspstrong uwtable
define internal void @glib_autoptr_cleanup_QemuLockable(ptr noundef %_ptr) #0 {
entry:
  %_ptr.addr = alloca ptr, align 8
  store ptr %_ptr, ptr %_ptr.addr, align 8
  %0 = load ptr, ptr %_ptr.addr, align 8
  %1 = load ptr, ptr %0, align 8
  call void @glib_autoptr_clear_QemuLockable(ptr noundef %1)
  ret void
}

; Function Attrs: nounwind sspstrong uwtable
define internal void @qemu_lockable_auto_unlock(ptr noundef %x) #0 {
entry:
  %x.addr = alloca ptr, align 8
  store ptr %x, ptr %x.addr, align 8
  %0 = load ptr, ptr %x.addr, align 8
  %tobool = icmp ne ptr %0, null
  br i1 %tobool, label %if.then, label %if.end

if.then:                                          ; preds = %entry
  %1 = load ptr, ptr %x.addr, align 8
  call void @qemu_lockable_unlock(ptr noundef %1)
  br label %if.end

if.end:                                           ; preds = %if.then, %entry
  ret void
}

; Function Attrs: nounwind sspstrong uwtable
define internal ptr @qemu_lockable_auto_lock(ptr noundef %x) #0 {
entry:
  %x.addr = alloca ptr, align 8
  store ptr %x, ptr %x.addr, align 8
  %0 = load ptr, ptr %x.addr, align 8
  call void @qemu_lockable_lock(ptr noundef %0)
  %1 = load ptr, ptr %x.addr, align 8
  ret ptr %1
}

; Function Attrs: nounwind sspstrong uwtable
define dso_local void @bdrv_graph_co_rdlock() #0 {
entry:
  %x.addr.i = alloca ptr, align 8
  %lockable.addr.i = alloca ptr, align 8
  %bdrv_graph = alloca ptr, align 8
  %.atomictmp = alloca i32, align 4
  %tmp = alloca i32, align 4
  %atomic-temp = alloca i32, align 4
  %qemu_lockable_auto8 = alloca ptr, align 8
  %.compoundliteral = alloca %struct.QemuLockable, align 8
  %cleanup.dest.slot = alloca i32, align 4
  %tmp18 = alloca i32, align 4
  %atomic-temp19 = alloca i32, align 4
  %.compoundliteral24 = alloca %struct.QemuLockable, align 8
  %call = call ptr @qemu_get_current_aio_context()
  %bdrv_graph1 = getelementptr inbounds %struct.AioContext, ptr %call, i32 0, i32 2
  %0 = load ptr, ptr %bdrv_graph1, align 8
  store ptr %0, ptr %bdrv_graph, align 8
  br label %for.cond

for.cond:                                         ; preds = %for.end, %entry
  br label %do.body

do.body:                                          ; preds = %for.cond
  br label %while.cond

while.cond:                                       ; preds = %do.end, %do.body
  br i1 false, label %while.body, label %while.end

while.body:                                       ; preds = %while.cond
  br label %do.body2

do.body2:                                         ; preds = %while.body
  call void @g_assertion_message_expr(ptr noundef null, ptr noundef @.str.1, i32 noundef 220, ptr noundef @__func__.bdrv_graph_co_rdlock, ptr noundef null) #7
  unreachable

do.end:                                           ; No predecessors!
  br label %while.cond

while.end:                                        ; preds = %while.cond
  %1 = load ptr, ptr %bdrv_graph, align 8
  %reader_count = getelementptr inbounds %struct.BdrvGraphRWlock, ptr %1, i32 0, i32 0
  %2 = load ptr, ptr %bdrv_graph, align 8
  %reader_count3 = getelementptr inbounds %struct.BdrvGraphRWlock, ptr %2, i32 0, i32 0
  %3 = load i32, ptr %reader_count3, align 8
  %add = add i32 %3, 1
  store i32 %add, ptr %.atomictmp, align 4
  %4 = load i32, ptr %.atomictmp, align 4
  store atomic i32 %4, ptr %reader_count monotonic, align 8
  br label %do.end4

do.end4:                                          ; preds = %while.end
  call void asm sideeffect "", "~{memory},~{dirflag},~{fpsr},~{flags}"() #8, !srcloc !12
  fence seq_cst
  br label %while.cond5

while.cond5:                                      ; preds = %do.end8, %do.end4
  br i1 false, label %while.body6, label %while.end9

while.body6:                                      ; preds = %while.cond5
  br label %do.body7

do.body7:                                         ; preds = %while.body6
  call void @g_assertion_message_expr(ptr noundef null, ptr noundef @.str.1, i32 noundef 230, ptr noundef @__func__.bdrv_graph_co_rdlock, ptr noundef null) #7
  unreachable

do.end8:                                          ; No predecessors!
  br label %while.cond5

while.end9:                                       ; preds = %while.cond5
  %5 = load atomic i32, ptr @has_writer monotonic, align 4
  store i32 %5, ptr %atomic-temp, align 4
  %6 = load i32, ptr %atomic-temp, align 4
  store i32 %6, ptr %tmp, align 4
  %7 = load i32, ptr %tmp, align 4
  %tobool = icmp ne i32 %7, 0
  br i1 %tobool, label %if.end, label %if.then

if.then:                                          ; preds = %while.end9
  br label %for.end29

if.end:                                           ; preds = %while.end9
  %object = getelementptr inbounds %struct.QemuLockable, ptr %.compoundliteral, i32 0, i32 0
  store ptr @aio_context_list_lock, ptr %object, align 8
  %lock = getelementptr inbounds %struct.QemuLockable, ptr %.compoundliteral, i32 0, i32 1
  store ptr @qemu_mutex_lock, ptr %lock, align 8
  %unlock = getelementptr inbounds %struct.QemuLockable, ptr %.compoundliteral, i32 0, i32 2
  store ptr @qemu_mutex_unlock, ptr %unlock, align 8
  %call10 = call ptr @qemu_lockable_auto_lock(ptr noundef %.compoundliteral)
  store ptr %call10, ptr %qemu_lockable_auto8, align 8
  br label %for.cond11

for.cond11:                                       ; preds = %for.inc, %if.end
  %8 = load ptr, ptr %qemu_lockable_auto8, align 8
  %tobool12 = icmp ne ptr %8, null
  br i1 %tobool12, label %for.body, label %for.cond.cleanup

for.cond.cleanup:                                 ; preds = %for.cond11
  store i32 14, ptr %cleanup.dest.slot, align 4
  br label %cleanup

for.body:                                         ; preds = %for.cond11
  br label %while.cond13

while.cond13:                                     ; preds = %do.end16, %for.body
  br i1 false, label %while.body14, label %while.end17

while.body14:                                     ; preds = %while.cond13
  br label %do.body15

do.body15:                                        ; preds = %while.body14
  call void @g_assertion_message_expr(ptr noundef null, ptr noundef @.str.1, i32 noundef 264, ptr noundef @__func__.bdrv_graph_co_rdlock, ptr noundef null) #7
  unreachable

do.cond:                                          ; No predecessors!
  br label %do.end16

do.end16:                                         ; preds = %do.cond
  br label %while.cond13

while.end17:                                      ; preds = %while.cond13
  %9 = load atomic i32, ptr @has_writer monotonic, align 4
  store i32 %9, ptr %atomic-temp19, align 4
  %10 = load i32, ptr %atomic-temp19, align 4
  store i32 %10, ptr %tmp18, align 4
  %11 = load i32, ptr %tmp18, align 4
  %tobool20 = icmp ne i32 %11, 0
  br i1 %tobool20, label %if.end22, label %if.then21

if.then21:                                        ; preds = %while.end17
  store i32 1, ptr %cleanup.dest.slot, align 4
  br label %cleanup

if.end22:                                         ; preds = %while.end17
  %12 = load ptr, ptr %bdrv_graph, align 8
  %reader_count23 = getelementptr inbounds %struct.BdrvGraphRWlock, ptr %12, i32 0, i32 0
  %13 = load i32, ptr %reader_count23, align 8
  %dec = add i32 %13, -1
  store i32 %dec, ptr %reader_count23, align 8
  call void @aio_wait_kick()
  %object25 = getelementptr inbounds %struct.QemuLockable, ptr %.compoundliteral24, i32 0, i32 0
  store ptr @aio_context_list_lock, ptr %object25, align 8
  %lock26 = getelementptr inbounds %struct.QemuLockable, ptr %.compoundliteral24, i32 0, i32 1
  store ptr @qemu_mutex_lock, ptr %lock26, align 8
  %unlock27 = getelementptr inbounds %struct.QemuLockable, ptr %.compoundliteral24, i32 0, i32 2
  store ptr @qemu_mutex_unlock, ptr %unlock27, align 8
  store ptr @aio_context_list_lock, ptr %x.addr.i, align 8
  store ptr %.compoundliteral24, ptr %lockable.addr.i, align 8
  %14 = load ptr, ptr %x.addr.i, align 8
  %tobool.i = icmp ne ptr %14, null
  br i1 %tobool.i, label %cond.true.i, label %cond.false.i

cond.true.i:                                      ; preds = %if.end22
  %15 = load ptr, ptr %lockable.addr.i, align 8
  br label %qemu_make_lockable.exit

cond.false.i:                                     ; preds = %if.end22
  br label %qemu_make_lockable.exit

qemu_make_lockable.exit:                          ; preds = %cond.false.i, %cond.true.i
  %cond.i = phi ptr [ %15, %cond.true.i ], [ null, %cond.false.i ]
  call void @qemu_co_queue_wait_impl(ptr noundef @reader_queue, ptr noundef %cond.i, i32 noundef 0)
  br label %for.inc

for.inc:                                          ; preds = %qemu_make_lockable.exit
  %16 = load ptr, ptr %qemu_lockable_auto8, align 8
  call void @qemu_lockable_auto_unlock(ptr noundef %16)
  store ptr null, ptr %qemu_lockable_auto8, align 8
  br label %for.cond11, !llvm.loop !13

cleanup:                                          ; preds = %if.then21, %for.cond.cleanup
  call void @glib_autoptr_cleanup_QemuLockable(ptr noundef %qemu_lockable_auto8)
  %cleanup.dest = load i32, ptr %cleanup.dest.slot, align 4
  switch i32 %cleanup.dest, label %unreachable [
    i32 14, label %for.end
    i32 1, label %for.end29
  ]

for.end:                                          ; preds = %cleanup
  br label %for.cond

for.end29:                                        ; preds = %cleanup, %if.then
  ret void

unreachable:                                      ; preds = %cleanup
  unreachable
}