; Function Attrs: nounwind sspstrong uwtable
define dso_local void @bdrv_graph_co_rdlock() #0 {
entry:
  %.compoundliteral24 = alloca %struct.QemuLockable, align 8
  %call = tail call ptr @qemu_get_current_aio_context() #5
  %bdrv_graph1 = getelementptr inbounds nuw i8, ptr %call, i64 144
  %0 = load ptr, ptr %bdrv_graph1, align 8
  %1 = load i32, ptr %0, align 8
  %add16 = add i32 %1, 1
  store atomic i32 %add16, ptr %0 monotonic, align 8
  tail call void asm sideeffect "", "~{memory},~{dirflag},~{fpsr},~{flags}"() #5, !srcloc !10
  fence seq_cst
  %2 = load atomic i32, ptr @has_writer monotonic, align 4
  %tobool.not17 = icmp eq i32 %2, 0
  br i1 %tobool.not17, label %for.end29, label %if.end.lr.ph

if.end.lr.ph:                                     ; preds = %entry
  %lock26 = getelementptr inbounds nuw i8, ptr %.compoundliteral24, i64 8
  %unlock27 = getelementptr inbounds nuw i8, ptr %.compoundliteral24, i64 16
  br label %if.end

if.end:                                           ; preds = %if.end.lr.ph, %qemu_lockable_auto_unlock.exit.us
  %3 = load atomic i64, ptr @qemu_mutex_lock_func monotonic, align 8
  %4 = inttoptr i64 %3 to ptr
  call void %4(ptr noundef nonnull @aio_context_list_lock, ptr noundef nonnull @.str.7, i32 noundef 122) #5
  %5 = load atomic i32, ptr @has_writer monotonic, align 4
  %tobool20.not.us = icmp eq i32 %5, 0
  br i1 %tobool20.not.us, label %glib_autoptr_cleanup_QemuLockable.exit.thread, label %qemu_lockable_auto_unlock.exit.us

qemu_lockable_auto_unlock.exit.us:                ; preds = %if.end
  %6 = load i32, ptr %0, align 8
  %dec.us = add i32 %6, -1
  store i32 %dec.us, ptr %0, align 8
  call void @aio_wait_kick() #5
  store ptr @aio_context_list_lock, ptr %.compoundliteral24, align 8
  store ptr @qemu_mutex_lock, ptr %lock26, align 8
  store ptr @qemu_mutex_unlock, ptr %unlock27, align 8
  call void @qemu_co_queue_wait_impl(ptr noundef nonnull @reader_queue, ptr noundef nonnull %.compoundliteral24, i32 noundef 0) #5
  call void @qemu_mutex_unlock_impl(ptr noundef nonnull @aio_context_list_lock, ptr noundef nonnull @.str.7, i32 noundef 132) #5
  %7 = load i32, ptr %0, align 8
  %add = add i32 %7, 1
  store atomic i32 %add, ptr %0 monotonic, align 8
  call void asm sideeffect "", "~{memory},~{dirflag},~{fpsr},~{flags}"() #5, !srcloc !10
  fence seq_cst
  %8 = load atomic i32, ptr @has_writer monotonic, align 4
  %tobool.not = icmp eq i32 %8, 0
  br i1 %tobool.not, label %for.end29, label %if.end

glib_autoptr_cleanup_QemuLockable.exit.thread:    ; preds = %if.end
  call void @qemu_mutex_unlock_impl(ptr noundef nonnull @aio_context_list_lock, ptr noundef nonnull @.str.7, i32 noundef 132) #5
  br label %for.end29

for.end29:                                        ; preds = %qemu_lockable_auto_unlock.exit.us, %entry, %glib_autoptr_cleanup_QemuLockable.exit.thread
  ret void
}